; Function Attrs: mustprogress nounwind uwtable
define dso_local noundef ptr @LLVMInstructionClone(ptr noundef %0) local_unnamed_addr #0 {
  %2 = load i8, ptr %0, align 8
  %3 = icmp ult i8 %2, 29
  br i1 %3, label %6, label %4

4:                                                ; preds = %1
  %5 = tail call noundef ptr @_ZNK4llvm11Instruction5cloneEv(ptr noundef nonnull align 8 dereferenceable(72) %0) #35
  br label %6

6:                                                ; preds = %1, %4
  %.0 = phi ptr [ %5, %4 ], [ null, %1 ]
  ret ptr %.0
}